; Function Attrs: nounwind sspstrong uwtable
define internal i64 @wmap_keys(i64 noundef %0) #0 {
  %2 = alloca %struct.wmap_foreach_data, align 8
  %3 = tail call ptr @rb_check_typeddata(i64 noundef %0, ptr noundef nonnull @weakmap_type) #10
  %4 = tail call i64 @rb_ary_new() #10
  %.val = load ptr, ptr %3, align 8, !tbaa !17
  call void @llvm.lifetime.start.p0(i64 24, ptr nonnull %2) #10
  store ptr @wmap_keys_i, ptr %2, align 8, !tbaa !20
  %5 = getelementptr inbounds nuw i8, ptr %2, i64 8
  store i64 %4, ptr %5, align 8, !tbaa !23
  %6 = getelementptr inbounds nuw i8, ptr %2, i64 16
  store ptr null, ptr %6, align 8, !tbaa !24
  %7 = ptrtoint ptr %2 to i64
  %8 = call i32 @rb_st_foreach(ptr noundef %.val, ptr noundef nonnull @wmap_foreach_i, i64 noundef %7) #10
  %9 = load ptr, ptr %6, align 8, !tbaa !24
  call void @ruby_xfree(ptr noundef %9) #10
  call void @llvm.lifetime.end.p0(i64 24, ptr nonnull %2) #10
  ret i64 %4
}